(dp0
S'ana'
p1
(I13
I1
I3
tp2
sS'ram'
p3
(I21
I1
I5
tp4
sS'brs'
p5
(I21
I1
I5
tp6
sS'prh'
p7
(I9
I0
Ntp8
sS'myi'
p9
(I13
I1
I3
tp10
sS'mnd'
p11
(I92
I6
Ntp12
sS'yid'
p13
(I21
I1
I5
tp14
sS'goo'
p15
(I15
I0
Ntp16
sS'eng'
p17
(I126
I6
Ntp18
sS'pit'
p19
(I13
I1
I3
tp20
sS'imo'
p21
(I21
I1
I5
tp22
sS'ain'
p23
(I121
I4
Ntp24
sS'xoo'
p25
(I13
I1
I3
tp26
sS'war'
p27
(I9
I0
Ntp28
sS'hpd'
p29
(I89
I1
I20
tp30
sS'hix'
p31
(I13
I1
I3
tp32
sS'awp'
p33
(I17
I1
I4
tp34
sS'wch'
p35
(I41
I1
I10
tp36
sS'kay'
p37
(I17
I1
I4
tp38
sS'geo'
p39
(I167
I5
Ntp40
sS'acg'
p41
(I13
I1
I3
tp42
sS'mrt'
p43
(I13
I1
I3
tp44
sS'wsk'
p45
(I69
I1
I10
tp46
sS'bae'
p47
(I13
I1
I3
tp48
s.